target datalayout = "e-m:e-p270:32:32-p271:32:32-p272:64:64-i64:64-i128:128-f80:128-n8:16:32:64-S128"
target triple = "x86_64-pc-linux-gnu"

@.str.3 = private unnamed_addr constant [2 x i8] c"\0A\00", align 1
@.str.4 = private unnamed_addr constant [35 x i8] c"    dffinit [options] [selection]\0A\00", align 1
@.str.5 = private unnamed_addr constant [76 x i8] c"This pass sets an FF cell parameter to the the initial value of the net it\0A\00", align 1
@.str.6 = private unnamed_addr constant [49 x i8] c"drives. (This is primarily used in FPGA flows.)\0A\00", align 1
@.str.7 = private unnamed_addr constant [48 x i8] c"    -ff <cell_name> <output_port> <init_param>\0A\00", align 1
@.str.8 = private unnamed_addr constant [69 x i8] c"        operate on the specified cell type. this option can be used\0A\00", align 1
@.str.9 = private unnamed_addr constant [25 x i8] c"        multiple times.\0A\00", align 1
@.str.10 = private unnamed_addr constant [14 x i8] c"    -highlow\0A\00", align 1
@.str.11 = private unnamed_addr constant [74 x i8] c"        use the string values \22high\22 and \22low\22 to represent a single-bit\0A\00", align 1
@.str.12 = private unnamed_addr constant [78 x i8] c"        initial value of 1 or 0. (multi-bit values are not supported in this\0A\00", align 1
@.str.13 = private unnamed_addr constant [16 x i8] c"        mode.)\0A\00", align 1
@.str.14 = private unnamed_addr constant [50 x i8] c"    -strinit <string for high> <string for low> \0A\00", align 1
@.str.15 = private unnamed_addr constant [73 x i8] c"        use string values in the command line to represent a single-bit\0A\00", align 1
@.str.16 = private unnamed_addr constant [15 x i8] c"    -noreinit\0A\00", align 1
@.str.17 = private unnamed_addr constant [78 x i8] c"        fail if the FF cell has already a defined initial value set in other\0A\00", align 1
@.str.18 = private unnamed_addr constant [75 x i8] c"        passes and the initial value of the net it drives is not equal to\0A\00", align 1
@.str.19 = private unnamed_addr constant [44 x i8] c"        the already defined initial value.\0A\00", align 1

; Function Attrs: mustprogress uwtable
define internal void @_ZN12_GLOBAL__N_111DffinitPass4helpEv(ptr noundef nonnull align 8 dereferenceable(104) %0) unnamed_addr #4 align 2 {
  %2 = alloca ptr, align 8
  store ptr %0, ptr %2, align 8
  call void (ptr, ...) @_ZN5Yosys3logEPKcz(ptr noundef @.str.3)
  call void (ptr, ...) @_ZN5Yosys3logEPKcz(ptr noundef @.str.4)
  call void (ptr, ...) @_ZN5Yosys3logEPKcz(ptr noundef @.str.3)
  call void (ptr, ...) @_ZN5Yosys3logEPKcz(ptr noundef @.str.5)
  call void (ptr, ...) @_ZN5Yosys3logEPKcz(ptr noundef @.str.6)
  call void (ptr, ...) @_ZN5Yosys3logEPKcz(ptr noundef @.str.3)
  call void (ptr, ...) @_ZN5Yosys3logEPKcz(ptr noundef @.str.7)
  call void (ptr, ...) @_ZN5Yosys3logEPKcz(ptr noundef @.str.8)
  call void (ptr, ...) @_ZN5Yosys3logEPKcz(ptr noundef @.str.9)
  call void (ptr, ...) @_ZN5Yosys3logEPKcz(ptr noundef @.str.3)
  call void (ptr, ...) @_ZN5Yosys3logEPKcz(ptr noundef @.str.10)
  call void (ptr, ...) @_ZN5Yosys3logEPKcz(ptr noundef @.str.11)
  call void (ptr, ...) @_ZN5Yosys3logEPKcz(ptr noundef @.str.12)
  call void (ptr, ...) @_ZN5Yosys3logEPKcz(ptr noundef @.str.13)
  call void (ptr, ...) @_ZN5Yosys3logEPKcz(ptr noundef @.str.3)
  call void (ptr, ...) @_ZN5Yosys3logEPKcz(ptr noundef @.str.14)
  call void (ptr, ...) @_ZN5Yosys3logEPKcz(ptr noundef @.str.15)
  call void (ptr, ...) @_ZN5Yosys3logEPKcz(ptr noundef @.str.12)
  call void (ptr, ...) @_ZN5Yosys3logEPKcz(ptr noundef @.str.13)
  call void (ptr, ...) @_ZN5Yosys3logEPKcz(ptr noundef @.str.3)
  call void (ptr, ...) @_ZN5Yosys3logEPKcz(ptr noundef @.str.16)
  call void (ptr, ...) @_ZN5Yosys3logEPKcz(ptr noundef @.str.17)
  call void (ptr, ...) @_ZN5Yosys3logEPKcz(ptr noundef @.str.18)
  call void (ptr, ...) @_ZN5Yosys3logEPKcz(ptr noundef @.str.19)
  call void (ptr, ...) @_ZN5Yosys3logEPKcz(ptr noundef @.str.3)
  ret void
}